; Function Attrs: mustprogress uwtable
define void @_ZN6casadi19DeserializingStream6unpackERSo(ptr nocapture noundef nonnull readonly align 8 dereferenceable(41) %0, ptr noundef nonnull align 8 dereferenceable(8) %1) local_unnamed_addr #3 align 2 {
  %3 = alloca i8, align 1
  %4 = alloca i8, align 1
  %5 = alloca i64, align 8
  %6 = alloca i8, align 1
  tail call void @_ZN6casadi19DeserializingStream17assert_decorationEc(ptr noundef nonnull align 8 dereferenceable(41) %0, i8 noundef signext 66)
  call void @llvm.lifetime.start.p0(i64 8, ptr nonnull %5)
  tail call void @_ZN6casadi19DeserializingStream17assert_decorationEc(ptr noundef nonnull align 8 dereferenceable(41) %0, i8 noundef signext 75)
  %7 = getelementptr inbounds i8, ptr %0, i64 32
  br label %8

8:                                                ; preds = %8, %2
  %indvars.iv.i = phi i64 [ 0, %2 ], [ %indvars.iv.next.i, %8 ]
  %9 = getelementptr inbounds i8, ptr %5, i64 %indvars.iv.i
  call void @llvm.lifetime.start.p0(i64 1, ptr nonnull %4)
  %10 = load ptr, ptr %7, align 8
  %11 = call noundef nonnull align 8 dereferenceable(16) ptr @_ZNSi3getERc(ptr noundef nonnull align 8 dereferenceable(16) %10, ptr noundef nonnull align 1 dereferenceable(1) %9)
  %12 = load ptr, ptr %7, align 8
  %13 = call noundef nonnull align 8 dereferenceable(16) ptr @_ZNSi3getERc(ptr noundef nonnull align 8 dereferenceable(16) %12, ptr noundef nonnull align 1 dereferenceable(1) %4)
  %14 = load i8, ptr %9, align 1
  %15 = load i8, ptr %4, align 1
  %16 = shl i8 %15, 4
  %17 = add i8 %14, -113
  %18 = add i8 %17, %16
  store i8 %18, ptr %9, align 1
  call void @llvm.lifetime.end.p0(i64 1, ptr nonnull %4)
  %indvars.iv.next.i = add nuw nsw i64 %indvars.iv.i, 1
  %exitcond.not.i = icmp eq i64 %indvars.iv.next.i, 8
  br i1 %exitcond.not.i, label %_ZN6casadi19DeserializingStream6unpackERm.exit, label %8, !llvm.loop !26

_ZN6casadi19DeserializingStream6unpackERm.exit:   ; preds = %8
  %19 = load i64, ptr %5, align 8
  call void @llvm.lifetime.end.p0(i64 8, ptr nonnull %5)
  %.not = icmp eq i64 %19, 0
  br i1 %.not, label %._crit_edge, label %.lr.ph

.lr.ph:                                           ; preds = %_ZN6casadi19DeserializingStream6unpackERm.exit, %.lr.ph
  %.03 = phi i64 [ %30, %.lr.ph ], [ 0, %_ZN6casadi19DeserializingStream6unpackERm.exit ]
  call void @llvm.lifetime.start.p0(i64 1, ptr nonnull %3)
  %20 = load ptr, ptr %7, align 8
  %21 = call noundef nonnull align 8 dereferenceable(16) ptr @_ZNSi3getERc(ptr noundef nonnull align 8 dereferenceable(16) %20, ptr noundef nonnull align 1 dereferenceable(1) %6)
  %22 = load ptr, ptr %7, align 8
  %23 = call noundef nonnull align 8 dereferenceable(16) ptr @_ZNSi3getERc(ptr noundef nonnull align 8 dereferenceable(16) %22, ptr noundef nonnull align 1 dereferenceable(1) %3)
  %24 = load i8, ptr %6, align 1
  %25 = load i8, ptr %3, align 1
  %26 = shl i8 %25, 4
  %27 = add i8 %24, -113
  %28 = add i8 %27, %26
  store i8 %28, ptr %6, align 1
  call void @llvm.lifetime.end.p0(i64 1, ptr nonnull %3)
  %29 = call noundef nonnull align 8 dereferenceable(8) ptr @_ZNSo3putEc(ptr noundef nonnull align 8 dereferenceable(8) %1, i8 noundef signext %28)
  %30 = add nuw i64 %.03, 1
  %exitcond.not = icmp eq i64 %30, %19
  br i1 %exitcond.not, label %._crit_edge, label %.lr.ph, !llvm.loop !60

._crit_edge:                                      ; preds = %.lr.ph, %_ZN6casadi19DeserializingStream6unpackERm.exit
  ret void
}